; Function Attrs: mustprogress uwtable
define i64 @ggml_backend_buft_get_alloc_size(ptr noundef %0, ptr noundef %1) local_unnamed_addr #0 {
  %3 = getelementptr inbounds nuw i8, ptr %0, i64 32
  %4 = load ptr, ptr %3, align 8, !tbaa !24
  %.not = icmp eq ptr %4, null
  br i1 %.not, label %7, label %5

5:                                                ; preds = %2
  %6 = tail call noundef i64 %4(ptr noundef nonnull %0, ptr noundef %1)
  br label %9

7:                                                ; preds = %2
  %8 = tail call i64 @ggml_nbytes(ptr noundef %1)
  br label %9

9:                                                ; preds = %7, %5
  %.0 = phi i64 [ %6, %5 ], [ %8, %7 ]
  ret i64 %.0
}